	.module mw_pro1.c
	.area lit(rom, con, rel)
_AmonicsLogo::
	.byte 0,0
	.byte 0,0
	.byte 0,0
	.byte 0,0
	.byte 0,0
	.byte 0,0
	.byte 0,0
	.byte 0,0
	.byte 0,0
	.byte 0,0
	.byte 0,0
	.byte 192,240
	.byte 240,192
	.byte 0,0
	.byte 0,0
	.byte 0,0
	.byte 0,0
	.byte 0,0
	.byte 0,0
	.byte 0,0
	.byte 0,0
	.byte 0,0
	.byte 0,0
	.byte 0,0
	.byte 0,0
	.byte 0,0
	.byte 0,0
	.byte 0,0
	.byte 0,0
	.byte 0,0
	.byte 0,0
	.byte 0,0
	.byte 0,0
	.byte 0,0
	.byte 0,0
	.byte 0,0
	.byte 0,0
	.byte 0,0
	.byte 0,0
	.byte 0,0
	.byte 0,0
	.byte 0,0
	.byte 0,0
	.byte 0,0
	.byte 0,0
	.byte 0,0
	.byte 0,0
	.byte 0,0
	.byte 0,0
	.byte 0,0
	.byte 0,0
	.byte 0,0
	.byte 0,0
	.byte 0,0
	.byte 0,0
	.byte 0,0
	.byte 0,0
	.byte 0,0
	.byte 0,0
	.byte 0,0
	.byte 0,0
	.byte 0,0
	.byte 0,0
	.byte 0,0
	.byte 0,0
	.byte 0,0
	.byte 0,0
	.byte 0,0
	.byte 0,0
	.byte 0,0
	.byte 128,128
	.byte 128,128
	.byte 128,128
	.byte 128,192
	.byte 240,254
	.byte 255,255
	.byte 255,255
	.byte 255,248
	.byte 192,0
	.byte 0,0
	.byte 0,0
	.byte 0,0
	.byte 0,0
	.byte 0,0
	.byte 0,0
	.byte 0,0
	.byte 0,0
	.byte 0,0
	.byte 0,0
	.byte 0,0
	.byte 0,0
	.byte 0,0
	.byte 0,0
	.byte 0,0
	.byte 0,0
	.byte 0,0
	.byte 0,0
	.byte 0,0
	.byte 0,0
	.byte 0,0
	.byte 0,0
	.byte 0,0
	.byte 0,0
	.byte 0,0
	.byte 0,0
	.byte 0,0
	.byte 0,0
	.byte 0,0
	.byte 0,0
	.byte 0,0
	.byte 0,0
	.byte 0,0
	.byte 0,0
	.byte 0,0
	.byte 0,0
	.byte 0,0
	.byte 0,0
	.byte 0,0
	.byte 0,0
	.byte 0,0
	.byte 0,0
	.byte 0,0
	.byte 0,0
	.byte 0,0
	.byte 0,0
	.byte 0,0
	.byte 0,0
	.byte 0,0
	.byte 0,0
	.byte 0,192
	.byte 224,240
	.byte 'x,60
	.byte 30,15
	.byte 7,7
	.byte 3,3
	.byte 3,3
	.byte 195,251
	.byte 255,127
	.byte 15,63
	.byte 255,255
	.byte 255,255
	.byte 255,255
	.byte 255,255
	.byte 248,192
	.byte 0,0
	.byte 0,0
	.byte 0,0
	.byte 0,0
	.byte 0,0
	.byte 0,0
	.byte 0,0
	.byte 0,0
	.byte 0,0
	.byte 0,0
	.byte 0,0
	.byte 0,0
	.byte 0,0
	.byte 0,0
	.byte 0,0
	.byte 0,0
	.byte 0,0
	.byte 0,0
	.byte 0,0
	.byte 0,0
	.byte 0,0
	.byte 0,0
	.byte 0,0
	.byte 0,0
	.byte 0,0
	.byte 0,0
	.byte 0,0
	.byte 0,0
	.byte 0,0
	.byte 0,0
	.byte 0,0
	.byte 0,0
	.byte 0,0
	.byte 0,0
	.byte 0,0
	.byte 0,0
	.byte 0,0
	.byte 0,0
	.byte 0,0
	.byte 0,0
	.byte 0,0
	.byte 0,0
	.byte 0,0
	.byte 0,0
	.byte 0,0
	.byte 0,0
	.byte 0,0
	.byte 0,0
	.byte 0,0
	.byte 255,255
	.byte 255,1
	.byte 0,0
	.byte 0,0
	.byte 0,0
	.byte 0,192
	.byte 248,254
	.byte 127,15
	.byte 1,0
	.byte 0,0
	.byte 1,15
	.byte 63,255
	.byte 255,255
	.byte 255,255
	.byte 255,255
	.byte 255,248
	.byte 192,0
	.byte 0,0
	.byte 0,0
	.byte 0,0
	.byte 0,0
	.byte 0,128
	.byte 128,128
	.byte 128,0
	.byte 0,0
	.byte 128,128
	.byte 128,0
	.byte 0,0
	.byte 0,0
	.byte 128,128
	.byte 128,0
	.byte 0,0
	.byte 0,0
	.byte 0,0
	.byte 0,128
	.byte 128,128
	.byte 0,0
	.byte 0,0
	.byte 0,0
	.byte 0,0
	.byte 0,128
	.byte 128,128
	.byte 128,128
	.byte 0,0
	.byte 0,0
	.byte 0,0
	.byte 28,62
	.byte 127,127
	.byte 127,127
	.byte 62,28
	.byte 0,0
	.byte 0,0
	.byte 0,0
	.byte 0,0
	.byte 0,0
	.byte 0,0
	.byte 0,0
	.byte 0,0
	.byte 0,0
	.byte 0,0
	.byte 0,0
	.byte 0,0
	.byte 0,0
	.byte 0,0
	.byte 7,31
	.byte 63,252
	.byte 240,192
	.byte 128,128
	.byte 192,248
	.byte 254,127
	.byte 15,15
	.byte 14,14
	.byte 14,14
	.byte 14,14
	.byte 14,142
	.byte 206,239
	.byte 255,127
	.byte 255,255
	.byte 255,255
	.byte 255,255
	.byte 255,255
	.byte 248,192
	.byte 0,0
	.byte 0,0
	.byte 0,0
	.byte 3,255
	.byte 255,255
	.byte 255,255
	.byte 14,7
	.byte 7,255
	.byte 255,255
	.byte 254,252
	.byte 6,7
	.byte 15,255
	.byte 255,255
	.byte 254,0
	.byte 240,252
	.byte 254,255
	.byte 255,3
	.byte 3,3
	.byte 255,255
	.byte 254,252
	.byte 224,1
	.byte 3,255
	.byte 255,255
	.byte 255,255
	.byte 7,7
	.byte 255,255
	.byte 255,254
	.byte 252,0
	.byte 0,3
	.byte 7,255
	.byte 255,255
	.byte 255,0
	.byte 240,252
	.byte 254,255
	.byte 143,3
	.byte 15,63
	.byte 63,62
	.byte 60,0
	.byte 124,255
	.byte 255,251
	.byte 243,227
	.byte 199,191
	.byte 63,0
	.byte 0,0
	.byte 0,0
	.byte 0,0
	.byte 0,0
	.byte 192,192
	.byte 225,241
	.byte 251,255
	.byte 255,255
	.byte 255,238
	.byte 206,206
	.byte 206,14
	.byte 14,14
	.byte 14,7
	.byte 7,3
	.byte 3,193
	.byte 192,192
	.byte 193,255
	.byte 255,255
	.byte 255,255
	.byte 255,255
	.byte 255,255
	.byte 255,248
	.byte 224,192
	.byte 192,0
	.byte 192,255
	.byte 255,255
	.byte 255,255
	.byte 192,128
	.byte 192,255
	.byte 255,255
	.byte 255,255
	.byte 192,128
	.byte 224,255
	.byte 255,255
	.byte 255,192
	.byte 143,63
	.byte 127,255
	.byte 255,192
	.byte 192,192
	.byte 255,255
	.byte 127,63
	.byte 15,128
	.byte 192,255
	.byte 255,255
	.byte 255,255
	.byte 128,192
	.byte 255,255
	.byte 255,255
	.byte 255,192
	.byte 0,128
	.byte 192,255
	.byte 255,255
	.byte 255,192
	.byte 143,63
	.byte 127,255
	.byte 255,248
	.byte 224,224
	.byte 224,'p
	.byte 56,0
	.byte 252,249
	.byte 227,195
	.byte 199,223
	.byte 255,255
	.byte 63,0
	.byte 0,0
	.byte 0,0
	.byte 0,0
	.byte 0,48
	.byte 'H,'H
	.byte 152,32
	.byte 224,32
	.byte 32,192
	.byte 0,192
	.byte 160,192
	.byte 0,192
	.byte 32,32
	.byte 0,32
	.byte 232,0
	.byte 0,160
	.byte 160,192
	.byte 0,248
	.byte 0,232
	.byte 0,192
	.byte 160,32
	.byte 0,240
	.byte 32,0
	.byte 0,0
	.byte 0,32
	.byte 232,0
	.byte 224,64
	.byte 32,224
	.byte 0,0
	.byte 0,240
	.byte 8,8
	.byte 8,240
	.byte 32,224
	.byte 32,32
	.byte 192,32
	.byte 240,32
	.byte 0,232
	.byte 0,192
	.byte 32,33
	.byte 1,161
	.byte 96,192
	.byte 0,8
	.byte 248,0
	.byte 0,0
	.byte 0,0
	.byte 0,224
	.byte 152,224
	.byte 0,0
	.byte 0,224
	.byte 32,224
	.byte 32,192
	.byte 32,224
	.byte 32,32
	.byte 192,0
	.byte 248,0
	.byte 232,0
	.byte 32,241
	.byte 41,8
	.byte 32,232
	.byte 0,192
	.byte 161,192
	.byte 0,225
	.byte 33,33
	.byte 192,160
	.byte 32,0
	.byte 0,0
	.byte 0,0
	.byte 0,0
	.byte 0,3
	.byte 2,2
	.byte 1,8
	.byte 15,10
	.byte 2,1
	.byte 0,1
	.byte 2,2
	.byte 0,1
	.byte 2,2
	.byte 0,2
	.byte 3,2
	.byte 0,3
	.byte 2,3
	.byte 0,3
	.byte 0,3
	.byte 0,2
	.byte 2,1
	.byte 0,3
	.byte 2,2
	.byte 0,0
	.byte 0,2
	.byte 3,2
	.byte 3,2
	.byte 0,3
	.byte 2,0
	.byte 0,1
	.byte 2,2
	.byte 2,1
	.byte 8,15
	.byte 10,2
	.byte 1,0
	.byte 3,2
	.byte 2,3
	.byte 2,1
	.byte 2,2
	.byte 0,3
	.byte 2,3
	.byte 0,2
	.byte 3,2
	.byte 0,0
	.byte 0,2
	.byte 3,0
	.byte 0,2
	.byte 3,2
	.byte 0,3
	.byte 0,3
	.byte 0,3
	.byte 8,15
	.byte 10,2
	.byte 1,0
	.byte 3,0
	.byte 3,0
	.byte 2,3
	.byte 2,0
	.byte 2,3
	.byte 2,1
	.byte 2,2
	.byte 0,3
	.byte 0,0
	.byte 2,2
	.byte 1,0
	.byte 0,0
	.byte 0,0
	.dbfile ./mw_pro1.c
	.dbsym e AmonicsLogo _AmonicsLogo A[1024:1024]c
	.area text(rom, con, rel)
	.dbfile ./mw_pro1.c
	.dbfunc e mwlike8_process1 _mwlike8_process1 fV
;            vec -> X+4
;              a -> X+2
;   timeout_task -> X+1
;          event -> X+0
_mwlike8_process1::
	.dbline -1
	push X
	mov X,SP
	add SP,22
	.dbline 181
; #include "app.h"
; 
; #ifdef I386_LINUX
; #include <stdio.h>
; #include <stdlib.h>
; #define MWINCLUDECOLORS
; #include "microwin/nano-X.h"
; #endif
; #ifdef CYPRESS_PSOC
; #include "nano-X.h"
; #include "sched.h"
; #include "timer.h"
; #include "printf.h"
; #endif
; 
; #ifdef I386_LINUX
; GR_WINDOW_ID  wid;
; GR_GC_ID      gc;
; GR_BITMAP eyeclose_bits[] = {
; 	0xfffe, 0x00ff, 0xfe00, 0xfff0, 0x001f, 0xfe00, 0xffc0, 0x0007, 
; 	0xfe00, 0xff01, 0xff01, 0xfe00, 0xfe0f, 0xffe0, 0xfe00, 0xfc3f, 
; 	0xfff8, 0x7e00, 0xf87f, 0xfffc, 0x3e00, 0xf0ff, 0xfffe, 0x1e00, 
; 	0xe1ff, 0xffff, 0x0e00, 0xe3ff, 0xffff, 0x8e00, 0xc7ff, 0xffff, 
; 	0xc600, 0xc7ff, 0xffff, 0xc600, 0x8fff, 0xffff, 0xe200, 0x8fff, 
; 	0xffff, 0xe200, 0x8fff, 0xffff, 0xe200, 0x1fff, 0xffff, 0xf000, 
; 	0x1fff, 0xffff, 0xf000, 0x1fff, 0xffff, 0xf000, 0x1fff, 0xffff, 
; 	0xf000, 0x1fff, 0xffff, 0xf000, 0x1fff, 0xffff, 0xf000, 0x1fff, 
; 	0xffff, 0xf000, 0x01ff, 0xfffe, 0x0000, 0x0001, 0xff00, 0x0000, 
; 	0x8000, 0x0000, 0x0200, 0x8800, 0x0000, 0x2200, 0x8ff0, 0x001f, 
; 	0xe200, 0xc7ff, 0xffff, 0xc600, 0xc7ff, 0xffff, 0xc600, 0xe3ff, 
; 	0xffff, 0x8e00, 0xe1ff, 0xffff, 0x0e00, 0xf0ff, 0xfffe, 0x1e00, 
; 	0xf87f, 0xfffc, 0x3e00, 0xfc3f, 0xfff8, 0x7e00, 0xfe0f, 0xffe0, 
; 	0xfe00, 0xff01, 0xff01, 0xfe00, 0xffc0, 0x0007, 0xfe00, 0xfff0, 
; 	0x001f, 0xfe00, 0xfffe, 0x00ff, 0xfe00, };
; #endif
; #ifdef CYPRESS_PSOC
; const unsigned char AmonicsLogo[]=
; { 
; 
; 	0x00, 0x00, 0x00, 0x00, 0x00, 0x00, 0x00, 0x00, // Page:1
; 	0x00, 0x00, 0x00, 0x00, 0x00, 0x00, 0x00, 0x00, 
; 	0x00, 0x00, 0x00, 0x00, 0x00, 0x00, 0xC0, 0xF0, 
; 	0xF0, 0xC0, 0x00, 0x00, 0x00, 0x00, 0x00, 0x00, 
; 	0x00, 0x00, 0x00, 0x00, 0x00, 0x00, 0x00, 0x00, 
; 	0x00, 0x00, 0x00, 0x00, 0x00, 0x00, 0x00, 0x00, 
; 	0x00, 0x00, 0x00, 0x00, 0x00, 0x00, 0x00, 0x00, 
; 	0x00, 0x00, 0x00, 0x00, 0x00, 0x00, 0x00, 0x00, 
; 	0x00, 0x00, 0x00, 0x00, 0x00, 0x00, 0x00, 0x00, 
; 	0x00, 0x00, 0x00, 0x00, 0x00, 0x00, 0x00, 0x00, 
; 	0x00, 0x00, 0x00, 0x00, 0x00, 0x00, 0x00, 0x00, 
; 	0x00, 0x00, 0x00, 0x00, 0x00, 0x00, 0x00, 0x00, 
; 	0x00, 0x00, 0x00, 0x00, 0x00, 0x00, 0x00, 0x00, 
; 	0x00, 0x00, 0x00, 0x00, 0x00, 0x00, 0x00, 0x00, 
; 	0x00, 0x00, 0x00, 0x00, 0x00, 0x00, 0x00, 0x00, 
; 	0x00, 0x00, 0x00, 0x00, 0x00, 0x00, 0x00, 0x00, 
; 	
; 	0x00, 0x00, 0x00, 0x00, 0x00, 0x00, 0x00, 0x00, // Page:2
; 	0x00, 0x00, 0x00, 0x00, 0x80, 0x80, 0x80, 0x80, 
; 	0x80, 0x80, 0x80, 0xC0, 0xF0, 0xFE, 0xFF, 0xFF, 
; 	0xFF, 0xFF, 0xFF, 0xF8, 0xC0, 0x00, 0x00, 0x00, 
; 	0x00, 0x00, 0x00, 0x00, 0x00, 0x00, 0x00, 0x00, 
; 	0x00, 0x00, 0x00, 0x00, 0x00, 0x00, 0x00, 0x00, 
; 	0x00, 0x00, 0x00, 0x00, 0x00, 0x00, 0x00, 0x00, 
; 	0x00, 0x00, 0x00, 0x00, 0x00, 0x00, 0x00, 0x00, 
; 	0x00, 0x00, 0x00, 0x00, 0x00, 0x00, 0x00, 0x00, 
; 	0x00, 0x00, 0x00, 0x00, 0x00, 0x00, 0x00, 0x00, 
; 	0x00, 0x00, 0x00, 0x00, 0x00, 0x00, 0x00, 0x00, 
; 	0x00, 0x00, 0x00, 0x00, 0x00, 0x00, 0x00, 0x00, 
; 	0x00, 0x00, 0x00, 0x00, 0x00, 0x00, 0x00, 0x00, 
; 	0x00, 0x00, 0x00, 0x00, 0x00, 0x00, 0x00, 0x00, 
; 	0x00, 0x00, 0x00, 0x00, 0x00, 0x00, 0x00, 0x00, 
; 	0x00, 0x00, 0x00, 0x00, 0x00, 0x00, 0x00, 0x00, 
; 	
; 	0x00, 0x00, 0x00, 0xC0, 0xE0, 0xF0, 0x78, 0x3C, // Page:3
; 	0x1E, 0x0F, 0x07, 0x07, 0x03, 0x03, 0x03, 0x03, 
; 	0xC3, 0xFB, 0xFF, 0x7F, 0x0F, 0x3F, 0xFF, 0xFF, 
; 	0xFF, 0xFF, 0xFF, 0xFF, 0xFF, 0xFF, 0xF8, 0xC0, 
; 	0x00, 0x00, 0x00, 0x00, 0x00, 0x00, 0x00, 0x00, 
; 	0x00, 0x00, 0x00, 0x00, 0x00, 0x00, 0x00, 0x00, 
; 	0x00, 0x00, 0x00, 0x00, 0x00, 0x00, 0x00, 0x00, 
; 	0x00, 0x00, 0x00, 0x00, 0x00, 0x00, 0x00, 0x00, 
; 	0x00, 0x00, 0x00, 0x00, 0x00, 0x00, 0x00, 0x00, 
; 	0x00, 0x00, 0x00, 0x00, 0x00, 0x00, 0x00, 0x00, 
; 	0x00, 0x00, 0x00, 0x00, 0x00, 0x00, 0x00, 0x00, 
; 	0x00, 0x00, 0x00, 0x00, 0x00, 0x00, 0x00, 0x00, 
; 	0x00, 0x00, 0x00, 0x00, 0x00, 0x00, 0x00, 0x00, 
; 	0x00, 0x00, 0x00, 0x00, 0x00, 0x00, 0x00, 0x00, 
; 	0x00, 0x00, 0x00, 0x00, 0x00, 0x00, 0x00, 0x00, 
; 	0x00, 0x00, 0x00, 0x00, 0x00, 0x00, 0x00, 0x00, 
; 	
; 	0x00, 0x00, 0xFF, 0xFF, 0xFF, 0x01, 0x00, 0x00, // Page:4
; 	0x00, 0x00, 0x00, 0x00, 0x00, 0xC0, 0xF8, 0xFE, 
; 	0x7F, 0x0F, 0x01, 0x00, 0x00, 0x00, 0x01, 0x0F, 
; 	0x3F, 0xFF, 0xFF, 0xFF, 0xFF, 0xFF, 0xFF, 0xFF, 
; 	0xFF, 0xF8, 0xC0, 0x00, 0x00, 0x00, 0x00, 0x00, 
; 	0x00, 0x00, 0x00, 0x00, 0x00, 0x80, 0x80, 0x80, 
; 	0x80, 0x00, 0x00, 0x00, 0x80, 0x80, 0x80, 0x00, 
; 	0x00, 0x00, 0x00, 0x00, 0x80, 0x80, 0x80, 0x00, 
; 	0x00, 0x00, 0x00, 0x00, 0x00, 0x00, 0x00, 0x80, 
; 	0x80, 0x80, 0x00, 0x00, 0x00, 0x00, 0x00, 0x00, 
; 	0x00, 0x00, 0x00, 0x80, 0x80, 0x80, 0x80, 0x80, 
; 	0x00, 0x00, 0x00, 0x00, 0x00, 0x00, 0x1C, 0x3E, 
; 	0x7F, 0x7F, 0x7F, 0x7F, 0x3E, 0x1C, 0x00, 0x00, 
; 	0x00, 0x00, 0x00, 0x00, 0x00, 0x00, 0x00, 0x00, 
; 	0x00, 0x00, 0x00, 0x00, 0x00, 0x00, 0x00, 0x00, 
; 	0x00, 0x00, 0x00, 0x00, 0x00, 0x00, 0x00, 0x00, 
; 	
; 	0x00, 0x00, 0x07, 0x1F, 0x3F, 0xFC, 0xF0, 0xC0, // Page:5
; 	0x80, 0x80, 0xC0, 0xF8, 0xFE, 0x7F, 0x0F, 0x0F, 
; 	0x0E, 0x0E, 0x0E, 0x0E, 0x0E, 0x0E, 0x0E, 0x8E, 
; 	0xCE, 0xEF, 0xFF, 0x7F, 0xFF, 0xFF, 0xFF, 0xFF, 
; 	0xFF, 0xFF, 0xFF, 0xFF, 0xF8, 0xC0, 0x00, 0x00, 
; 	0x00, 0x00, 0x00, 0x00, 0x03, 0xFF, 0xFF, 0xFF, 
; 	0xFF, 0xFF, 0x0E, 0x07, 0x07, 0xFF, 0xFF, 0xFF, 
; 	0xFE, 0xFC, 0x06, 0x07, 0x0F, 0xFF, 0xFF, 0xFF, 
; 	0xFE, 0x00, 0xF0, 0xFC, 0xFE, 0xFF, 0xFF, 0x03, 
; 	0x03, 0x03, 0xFF, 0xFF, 0xFE, 0xFC, 0xE0, 0x01, 
; 	0x03, 0xFF, 0xFF, 0xFF, 0xFF, 0xFF, 0x07, 0x07, 
; 	0xFF, 0xFF, 0xFF, 0xFE, 0xFC, 0x00, 0x00, 0x03, 
; 	0x07, 0xFF, 0xFF, 0xFF, 0xFF, 0x00, 0xF0, 0xFC, 
; 	0xFE, 0xFF, 0x8F, 0x03, 0x0F, 0x3F, 0x3F, 0x3E, 
; 	0x3C, 0x00, 0x7C, 0xFF, 0xFF, 0xFB, 0xF3, 0xE3, 
; 	0xC7, 0xBF, 0x3F, 0x00, 0x00, 0x00, 0x00, 0x00, 
; 	
; 	0x00, 0x00, 0x00, 0x00, 0xC0, 0xC0, 0xE1, 0xF1, // Page:6
; 	0xFB, 0xFF, 0xFF, 0xFF, 0xFF, 0xEE, 0xCE, 0xCE, 
; 	0xCE, 0x0E, 0x0E, 0x0E, 0x0E, 0x07, 0x07, 0x03, 
; 	0x03, 0xC1, 0xC0, 0xC0, 0xC1, 0xFF, 0xFF, 0xFF, 
; 	0xFF, 0xFF, 0xFF, 0xFF, 0xFF, 0xFF, 0xFF, 0xF8, 
; 	0xE0, 0xC0, 0xC0, 0x00, 0xC0, 0xFF, 0xFF, 0xFF, 
; 	0xFF, 0xFF, 0xC0, 0x80, 0xC0, 0xFF, 0xFF, 0xFF, 
; 	0xFF, 0xFF, 0xC0, 0x80, 0xE0, 0xFF, 0xFF, 0xFF, 
; 	0xFF, 0xC0, 0x8F, 0x3F, 0x7F, 0xFF, 0xFF, 0xC0, 
; 	0xC0, 0xC0, 0xFF, 0xFF, 0x7F, 0x3F, 0x0F, 0x80, 
; 	0xC0, 0xFF, 0xFF, 0xFF, 0xFF, 0xFF, 0x80, 0xC0, 
; 	0xFF, 0xFF, 0xFF, 0xFF, 0xFF, 0xC0, 0x00, 0x80, 
; 	0xC0, 0xFF, 0xFF, 0xFF, 0xFF, 0xC0, 0x8F, 0x3F, 
; 	0x7F, 0xFF, 0xFF, 0xF8, 0xE0, 0xE0, 0xE0, 0x70, 
; 	0x38, 0x00, 0xFC, 0xF9, 0xE3, 0xC3, 0xC7, 0xDF, 
; 	0xFF, 0xFF, 0x3F, 0x00, 0x00, 0x00, 0x00, 0x00, 
; 	
; 	0x00, 0x00, 0x00, 0x30, 0x48, 0x48, 0x98, 0x20, // Page:7
; 	0xE0, 0x20, 0x20, 0xC0, 0x00, 0xC0, 0xA0, 0xC0, 
; 	0x00, 0xC0, 0x20, 0x20, 0x00, 0x20, 0xE8, 0x00, 
; 	0x00, 0xA0, 0xA0, 0xC0, 0x00, 0xF8, 0x00, 0xE8, 
; 	0x00, 0xC0, 0xA0, 0x20, 0x00, 0xF0, 0x20, 0x00, 
; 	0x00, 0x00, 0x00, 0x20, 0xE8, 0x00, 0xE0, 0x40, 
; 	0x20, 0xE0, 0x00, 0x00, 0x00, 0xF0, 0x08, 0x08, 
; 	0x08, 0xF0, 0x20, 0xE0, 0x20, 0x20, 0xC0, 0x20, 
; 	0xF0, 0x20, 0x00, 0xE8, 0x00, 0xC0, 0x20, 0x21, 
; 	0x01, 0xA1, 0x60, 0xC0, 0x00, 0x08, 0xF8, 0x00, 
; 	0x00, 0x00, 0x00, 0x00, 0x00, 0xE0, 0x98, 0xE0, 
; 	0x00, 0x00, 0x00, 0xE0, 0x20, 0xE0, 0x20, 0xC0, 
; 	0x20, 0xE0, 0x20, 0x20, 0xC0, 0x00, 0xF8, 0x00, 
; 	0xE8, 0x00, 0x20, 0xF1, 0x29, 0x08, 0x20, 0xE8, 
; 	0x00, 0xC0, 0xA1, 0xC0, 0x00, 0xE1, 0x21, 0x21, 
; 	0xC0, 0xA0, 0x20, 0x00, 0x00, 0x00, 0x00, 0x00, 
; 	
; 	0x00, 0x00, 0x00, 0x03, 0x02, 0x02, 0x01, 0x08, // Page:8
; 	0x0F, 0x0A, 0x02, 0x01, 0x00, 0x01, 0x02, 0x02, 
; 	0x00, 0x01, 0x02, 0x02, 0x00, 0x02, 0x03, 0x02, 
; 	0x00, 0x03, 0x02, 0x03, 0x00, 0x03, 0x00, 0x03, 
; 	0x00, 0x02, 0x02, 0x01, 0x00, 0x03, 0x02, 0x02, 
; 	0x00, 0x00, 0x00, 0x02, 0x03, 0x02, 0x03, 0x02, 
; 	0x00, 0x03, 0x02, 0x00, 0x00, 0x01, 0x02, 0x02, 
; 	0x02, 0x01, 0x08, 0x0F, 0x0A, 0x02, 0x01, 0x00, 
; 	0x03, 0x02, 0x02, 0x03, 0x02, 0x01, 0x02, 0x02, 
; 	0x00, 0x03, 0x02, 0x03, 0x00, 0x02, 0x03, 0x02, 
; 	0x00, 0x00, 0x00, 0x02, 0x03, 0x00, 0x00, 0x02, 
; 	0x03, 0x02, 0x00, 0x03, 0x00, 0x03, 0x00, 0x03, 
; 	0x08, 0x0F, 0x0A, 0x02, 0x01, 0x00, 0x03, 0x00, 
; 	0x03, 0x00, 0x02, 0x03, 0x02, 0x00, 0x02, 0x03, 
; 	0x02, 0x01, 0x02, 0x02, 0x00, 0x03, 0x00, 0x00, 
; 	0x02, 0x02, 0x01, 0x00, 0x00, 0x00, 0x00, 0x00
; 
; };
; extern unsigned char ClearPaper[];
; #endif
; 
; void mwlike8_process1(void)
; {
	.dbline 190
; 	
; 	GR_EVENT	event;		// current event
; 	#define	TIME_OUT_INIT		0
; 	#define	TIME_OUT_INIT1		TIME_OUT_INIT + 1
; 	#define	TIME_OUT_INIT2		TIME_OUT_INIT1 + 1
; 	#define	TIME_OUT_INIT3		TIME_OUT_INIT2 + 1
; 	#define	TIME_OUT_STATIC_SCR	TIME_OUT_INIT3 + 1
; 	#define	TIME_OUT_		TIME_OUT_STATIC_SCR + 1
; 	unsigned char timeout_task = TIME_OUT_INIT;
	mov [X+1],0
	.dbline 192
; 	
; 						 int a = 0;
	mov [X+3],0
	mov [X+2],0
	.dbline 220
; 						 char vec[10];
; 	
; #ifdef I386_LINUX
;     if (GrOpen() < 0)
;     {
;         fprintf (stderr, "GrOpen failed");
;         exit (1);
;     }
; 
;     wid = GrNewWindowEx (GR_WM_PROPS_APPFRAME |
;                          GR_WM_PROPS_CAPTION  |
;                          GR_WM_PROPS_CLOSEBOX,
;                          "H W H",
;                          GR_ROOT_WINDOW_ID, 
;                          1, 1, 100, 40, WHITE);
; 
;     GrSelectEvents (wid, GR_EVENT_MASK_EXPOSURE | 
;                          GR_EVENT_MASK_CLOSE_REQ);
; 			 
;     gc = GrNewGC();
;     GrSetGCUseBackground(gc, GR_FALSE);
;     GrSetGCForeground(gc, RED);
; 
;     //GrMapWindow (wid);
; 	GrBitmap(wid, gc, 0, 0, 39, 39, eyeclose_bits);
; #endif
; #ifdef CYPRESS_PSOC
; 	msleep(100);									// let mwlinke8 server has enough time to init.
	mov A,10
	push A
	xcall _schedule_timeout
	.dbline 222
; //	GrMapWindow();
; 	GrBitmap(AmonicsLogo);
	mov A,>_AmonicsLogo
	push A
	mov A,<_AmonicsLogo
	push A
	xcall _GrBitmapDrv
	add SP,-3
	.dbline 223
; 	buz_one_shot();
	or [_io_bit_ctrl],4
	mov A,[_io_bit_ctrl]
	xjmp L6
L5:
	.dbline 226
; #endif
;     
; 	while (1) {
	.dbline 227
; 		GrGetNextEventTimeout(&event, 300);					// check events
	mov A,1
	push A
	mov A,44
	push A
	mov A,[__r0]
	push A
	push X
	xcall _GrGetNextEventTimeout
	add SP,-4
	.dbline 228
	mov A,[X+0]
	mov [__r1],A
	mov [__r0],0
	and [__r1],7
	and [__r0],0
	mov A,[__r1]
	mov [X+15],A
	mov A,[__r0]
	mov [X+14],A
	cmp [X+14],0
	jnz X5
	cmp [X+15],1
	jz L9
X5:
	cmp [X+14],0
	jnz X6
	cmp [X+15],2
	jz L26
X6:
	cmp [X+14],0
	jnz X7
	cmp [X+15],3
	jz L37
X7:
	cmp [X+14],0
	jnz X8
	cmp [X+15],4
	jz L12
X8:
	xjmp L8
X0:
	.dbline 228
; 		switch (event.type) {
	.dbline 230
; 			case GR_EVENT_TYPE_EXPOSURE:					// display init. screen on startup
; 				break;
L12:
	.dbline 241
	mov A,[X+1]
	mov [X+17],A
	mov [X+16],0
	cmp [X+16],0
	jnz X9
	cmp [X+17],0
	jz L16
X9:
	cmp [X+16],0
	jnz X10
	cmp [X+17],1
	jz L17
X10:
	cmp [X+16],0
	jnz X11
	cmp [X+17],2
	jz L18
X11:
	cmp [X+16],0
	jnz X12
	cmp [X+17],3
	jz L19
X12:
	cmp [X+16],0
	jnz X13
	cmp [X+17],4
	jz L20
X13:
	cmp [X+16],0
	jnz X14
	cmp [X+17],5
	jz L24
X14:
	xjmp L9
X1:
	.dbline 241
; 	
; #ifdef I386_LINUX
; 			case GR_EVENT_TYPE_CLOSE_REQ:
; 				GrClose();
; 				exit(0);
; #endif
; 	
; 			case GR_EVENT_TYPE_TIMEOUT:
; 			
; 		// display each regular time
; 				 switch (timeout_task) {
L16:
	.dbline 243
; 					case TIME_OUT_INIT :				//	for around 1 sec for logo
; 						 timeout_task = TIME_OUT_INIT1;
	mov [X+1],1
	.dbline 244
; 						break;
	xjmp L9
L17:
	.dbline 246
; 					case TIME_OUT_INIT1 :
; 						 timeout_task = TIME_OUT_INIT2;
	mov [X+1],2
	.dbline 247
; 						break;
	xjmp L9
L18:
	.dbline 249
; 					case TIME_OUT_INIT2 :
; 						 timeout_task = TIME_OUT_INIT3;
	mov [X+1],3
	.dbline 250
; 						break;
	xjmp L9
L19:
	.dbline 253
; 					case TIME_OUT_INIT3 :				
; #ifdef CYPRESS_PSOC
; 						 GrBitmap(ClearPaper);
	mov A,>_ClearPaper
	push A
	mov A,<_ClearPaper
	push A
	xcall _GrBitmapDrv
	add SP,-2
	.dbline 255
; #endif
; 						 timeout_task = TIME_OUT_STATIC_SCR;
	mov [X+1],4
	.dbline 256
; 						break;
	xjmp L9
L20:
	.dbline 258
; 					case TIME_OUT_STATIC_SCR :
; 						 GrText_const(0,0,"i/p Pwr:", 8, 0);GrText_const(14,0,"mW", 2, 0);
	mov A,0
	push A
	mov A,8
	push A
	mov A,0
	push A
	push A
	mov A,>L21
	push A
	mov A,<L21
	push A
	mov A,0
	push A
	push A
	xcall _GrText
	.dbline 258
	mov A,0
	push A
	mov A,2
	push A
	mov A,0
	push A
	push A
	mov A,>L22
	push A
	mov A,<L22
	push A
	mov A,0
	push A
	mov A,14
	push A
	xcall _GrText
	add SP,-16
	.dbline 259
; 						 GrText_const(0,1,"o/p Pwr:", 8, 0);GrText_const(14,1,"mW", 2, 0);
	mov A,0
	push A
	mov A,8
	push A
	mov A,0
	push A
	push A
	mov A,>L23
	push A
	mov A,<L23
	push A
	mov A,1
	push A
	mov A,0
	push A
	xcall _GrText
	.dbline 259
	mov A,0
	push A
	mov A,2
	push A
	mov A,0
	push A
	push A
	mov A,>L22
	push A
	mov A,<L22
	push A
	mov A,1
	push A
	mov A,14
	push A
	xcall _GrText
	add SP,-16
	.dbline 260
; 						 timeout_task = TIME_OUT_;
	mov [X+1],5
	.dbline 261
; 						break;
	xjmp L9
L24:
	.dbline 265
; 					case TIME_OUT_ :
; #ifdef CYPRESS_PSOC
; 						// bug in overflow, a = 32767 only
; 						 print_integer(vec, "05", a);
	mov A,[X+2]
	push A
	mov A,[X+3]
	push A
	mov A,>L25
	push A
	mov A,<L25
	push A
	mov [__r1],X
	add [__r1],4
	mov A,[__r0]
	push A
	mov A,[__r1]
	push A
	xcall _print_integer
	.dbline 266
; 						 GrText_buf(3,3,vec, 5, 0);
	mov A,0
	push A
	mov A,5
	push A
	mov [__r1],X
	add [__r1],4
	mov A,[__r0]
	push A
	mov A,[__r1]
	push A
	mov A,0
	push A
	push A
	mov A,3
	push A
	push A
	xcall _GrText
	add SP,-14
	.dbline 267
; 						 a++;
	inc [X+3]
	adc [X+2],0
	.dbline 273
; #endif
; #ifdef I386_LINUX
; 						 GrText (wid, gc, 50, 50,
; 							"H W C#2",  -1, GR_TFASCII);
; #endif
; 						break;
	.dbline 276
; 				 }
; 				 
; 				break;
	xjmp L9
L26:
	.dbline 278
; 			case GR_EVENT_TYPE_KEY_DOWN :
; 				 GrText_const(1,5,"DOWN", 4, 0);
	mov A,0
	push A
	mov A,4
	push A
	mov A,0
	push A
	push A
	mov A,>L27
	push A
	mov A,<L27
	push A
	mov A,5
	push A
	mov A,1
	push A
	xcall _GrText
	add SP,-8
	.dbline 279
	mov A,[X+0]
	mov [__r1],A
	mov [__r0],0
	asr [__r0]
	rrc [__r1]
	asr [__r0]
	rrc [__r1]
	asr [__r0]
	rrc [__r1]
	and [__r1],3
	and [__r0],0
	mov A,[__r1]
	mov [X+19],A
	mov A,[__r0]
	mov [X+18],A
	cmp [X+18],0
	jnz X15
	cmp [X+19],0
	jz L31
X15:
	cmp [X+18],0
	jnz X16
	cmp [X+19],1
	jz L33
X16:
	cmp [X+18],0
	jnz X17
	cmp [X+19],2
	jz L35
X17:
	xjmp L9
X2:
	.dbline 279
; 				 switch (event.keystroke.ch) {
L31:
	.dbline 281
; 					 case GR_KEY_ENTER : 
; 						 GrText_const(5,5," ENTER", 6, 0);
	mov A,0
	push A
	mov A,6
	push A
	mov A,0
	push A
	push A
	mov A,>L32
	push A
	mov A,<L32
	push A
	mov A,5
	push A
	push A
	xcall _GrText
	add SP,-8
	.dbline 282
; 						break;
	xjmp L9
L33:
	.dbline 284
; 					 case GR_SPECIAL_KEY_ARROW_UP : 
; 						 GrText_const(5,5," UP   ", 6, 0);
	mov A,0
	push A
	mov A,6
	push A
	mov A,0
	push A
	push A
	mov A,>L34
	push A
	mov A,<L34
	push A
	mov A,5
	push A
	push A
	xcall _GrText
	add SP,-8
	.dbline 285
; 						break;
	xjmp L9
L35:
	.dbline 287
; 					 case GR_SPECIAL_KEY_ARROW_DOWN : 
; 						 GrText_const(5,5," DOWN ", 6, 0);
	mov A,0
	push A
	mov A,6
	push A
	mov A,0
	push A
	push A
	mov A,>L36
	push A
	mov A,<L36
	push A
	mov A,5
	push A
	push A
	xcall _GrText
	add SP,-8
	.dbline 288
; 						break;
	.dbline 290
; 				 }
; 				break;
	xjmp L9
L37:
	.dbline 292
; 			case GR_EVENT_TYPE_KEY_UP :
; 				 GrText_const(1,5,"UP  ", 4, 0);
	mov A,0
	push A
	mov A,4
	push A
	mov A,0
	push A
	push A
	mov A,>L38
	push A
	mov A,<L38
	push A
	mov A,5
	push A
	mov A,1
	push A
	xcall _GrText
	add SP,-8
	.dbline 293
	mov A,[X+0]
	mov [__r1],A
	mov [__r0],0
	asr [__r0]
	rrc [__r1]
	asr [__r0]
	rrc [__r1]
	asr [__r0]
	rrc [__r1]
	and [__r1],3
	and [__r0],0
	mov A,[__r1]
	mov [X+21],A
	mov A,[__r0]
	mov [X+20],A
	cmp [X+20],0
	jnz X18
	cmp [X+21],0
	jz L42
X18:
	cmp [X+20],0
	jnz X19
	cmp [X+21],1
	jz L43
X19:
	cmp [X+20],0
	jnz X20
	cmp [X+21],2
	jz L44
X20:
	xjmp L9
X3:
	.dbline 293
; 				 switch (event.keystroke.ch) {
L42:
	.dbline 295
; 					 case GR_KEY_ENTER : 
; 						 GrText_const(5,5," ENTER", 6, 0);
	mov A,0
	push A
	mov A,6
	push A
	mov A,0
	push A
	push A
	mov A,>L32
	push A
	mov A,<L32
	push A
	mov A,5
	push A
	push A
	xcall _GrText
	add SP,-8
	.dbline 296
; 						break;
	xjmp L9
L43:
	.dbline 298
; 					 case GR_SPECIAL_KEY_ARROW_UP : 
; 						 GrText_const(5,5," UP   ", 6, 0);
	mov A,0
	push A
	mov A,6
	push A
	mov A,0
	push A
	push A
	mov A,>L34
	push A
	mov A,<L34
	push A
	mov A,5
	push A
	push A
	xcall _GrText
	add SP,-8
	.dbline 299
; 						break;
	xjmp L9
L44:
	.dbline 301
; 					 case GR_SPECIAL_KEY_ARROW_DOWN : 
; 						 GrText_const(5,5," DOWN ", 6, 0);
	mov A,0
	push A
	mov A,6
	push A
	mov A,0
	push A
	push A
	mov A,>L36
	push A
	mov A,<L36
	push A
	mov A,5
	push A
	push A
	xcall _GrText
	add SP,-8
	.dbline 302
; 						break;
	.dbline 304
; 				 }
; 				break;
L8:
L9:
	.dbline 306
L6:
	.dbline 226
	xjmp L5
X4:
	.dbline -2
	.dbline 307
; 		}
; 	}
; }
L4:
	add SP,-22
	pop X
	.dbline 0 ; func end
	ret
	.dbsym l vec 4 A[10:10]c
	.dbsym l a 2 I
	.dbsym l timeout_task 1 c
	.dbsym l event 0 X
	.dbend
	.area lit(rom, con, rel)
L38:
	.byte 'U,'P,32,32,0
L36:
	.byte 32,'D,'O,'W,'N,32,0
L34:
	.byte 32,'U,'P,32,32,32,0
L32:
	.byte 32,'E,'N,'T,'E,'R,0
L27:
	.byte 'D,'O,'W,'N,0
L25:
	.byte 48,53,0
L23:
	.byte 'o,47,'p,32,'P,'w,'r,58,0
L22:
	.byte 'm,'W,0
L21:
	.byte 'i,47,'p,32,'P,'w,'r,58,0
